target datalayout = "e-m:e-p270:32:32-p271:32:32-p272:64:64-i64:64-i128:128-f80:128-n8:16:32:64-S128"
target triple = "x86_64-unknown-linux-gnu"

@kmalloc_caches = external dso_local local_unnamed_addr global [3 x [14 x ptr]], align 16

; Function Attrs: fn_ret_thunk_extern nounwind null_pointer_is_valid
define internal fastcc i32 @__hw_addr_add_ex(ptr noundef %0, ptr nocapture noundef readonly %1, i32 noundef %2, i8 noundef zeroext %3, i1 noundef zeroext %4, i1 noundef zeroext %5, i32 noundef %6, i1 noundef zeroext %7) unnamed_addr #0 align 16 {
  %9 = getelementptr inbounds i8, ptr %0, i64 24
  %10 = icmp sgt i32 %2, 32
  br i1 %10, label %95, label %11

11:                                               ; preds = %8
  %12 = load ptr, ptr %9, align 8
  %13 = icmp eq ptr %12, null
  br i1 %13, label %67, label %14

14:                                               ; preds = %11
  %15 = sext i32 %2 to i64
  %16 = zext i8 %3 to i32
  %17 = icmp ne i32 %6, 0
  br label %21

18:                                               ; preds = %61
  %19 = load ptr, ptr %63, align 8
  %20 = icmp eq ptr %19, null
  br i1 %20, label %65, label %21, !llvm.loop !47

21:                                               ; preds = %18, %14
  %22 = phi ptr [ %12, %14 ], [ %19, %18 ]
  %23 = phi i32 [ undef, %14 ], [ %64, %18 ]
  %24 = phi ptr [ %9, %14 ], [ %63, %18 ]
  %25 = getelementptr i8, ptr %22, i64 24
  %26 = tail call i32 @memcmp(ptr noundef %1, ptr noundef %25, i64 noundef %15)
  %27 = icmp eq i32 %26, 0
  br i1 %27, label %28, label %33

28:                                               ; preds = %21
  %29 = getelementptr i8, ptr %22, i64 56
  %30 = load i8, ptr %29, align 1
  %31 = zext i8 %30 to i32
  %32 = sub nsw i32 %16, %31
  br label %33

33:                                               ; preds = %28, %21
  %34 = phi i32 [ %32, %28 ], [ %26, %21 ]
  %35 = icmp slt i32 %34, 0
  br i1 %35, label %36, label %38

36:                                               ; preds = %33
  %37 = getelementptr inbounds i8, ptr %22, i64 16
  br label %61

38:                                               ; preds = %33
  %39 = icmp eq i32 %34, 0
  br i1 %39, label %42, label %40

40:                                               ; preds = %38
  %41 = getelementptr inbounds i8, ptr %22, i64 8
  br label %61

42:                                               ; preds = %38
  br i1 %7, label %61, label %43

43:                                               ; preds = %42
  br i1 %4, label %44, label %49

44:                                               ; preds = %43
  %45 = getelementptr i8, ptr %22, i64 57
  %46 = load i8, ptr %45, align 1, !range !48, !noundef !49
  %47 = icmp eq i8 %46, 0
  br i1 %47, label %48, label %61

48:                                               ; preds = %44
  store i8 1, ptr %45, align 1
  br label %49

49:                                               ; preds = %48, %43
  br i1 %5, label %50, label %57

50:                                               ; preds = %49
  %51 = getelementptr i8, ptr %22, i64 68
  %52 = load i32, ptr %51, align 4
  %53 = icmp ne i32 %52, 0
  %54 = and i1 %17, %53
  br i1 %54, label %61, label %55

55:                                               ; preds = %50
  %56 = add i32 %52, 1
  store i32 %56, ptr %51, align 4
  br label %57

57:                                               ; preds = %55, %49
  %58 = getelementptr i8, ptr %22, i64 64
  %59 = load i32, ptr %58, align 8
  %60 = add i32 %59, 1
  store i32 %60, ptr %58, align 8
  br label %61

61:                                               ; preds = %57, %50, %44, %42, %40, %36
  %62 = phi i1 [ false, %57 ], [ false, %42 ], [ false, %44 ], [ false, %50 ], [ true, %40 ], [ true, %36 ]
  %63 = phi ptr [ %24, %57 ], [ %24, %42 ], [ %24, %44 ], [ %24, %50 ], [ %41, %40 ], [ %37, %36 ]
  %64 = phi i32 [ 0, %57 ], [ -17, %42 ], [ 0, %44 ], [ -17, %50 ], [ %23, %40 ], [ %23, %36 ]
  br i1 %62, label %18, label %95, !llvm.loop !47

65:                                               ; preds = %18
  %66 = ptrtoint ptr %22 to i64
  br label %67

67:                                               ; preds = %65, %11
  %68 = phi i64 [ 0, %11 ], [ %66, %65 ]
  %69 = phi ptr [ %9, %11 ], [ %63, %65 ]
  %70 = load ptr, ptr getelementptr inbounds ([3 x [14 x ptr]], ptr @kmalloc_caches, i64 0, i64 0, i64 7), align 8
  %71 = tail call noalias align 8 dereferenceable_or_null(104) ptr @kmalloc_trace(ptr noundef %70, i32 noundef 2080, i64 noundef 104) #13
  %72 = icmp eq ptr %71, null
  br i1 %72, label %83, label %73

73:                                               ; preds = %67
  %74 = zext i1 %4 to i8
  %75 = getelementptr inbounds i8, ptr %71, i64 40
  %76 = sext i32 %2 to i64
  tail call void @llvm.memcpy.p0.p0.i64(ptr align 8 %75, ptr align 1 %1, i64 %76, i1 false)
  %77 = getelementptr inbounds i8, ptr %71, i64 72
  store i8 %3, ptr %77, align 8
  %78 = getelementptr inbounds i8, ptr %71, i64 80
  store i32 1, ptr %78, align 8
  %79 = getelementptr inbounds i8, ptr %71, i64 73
  store i8 %74, ptr %79, align 1
  %80 = zext i1 %5 to i32
  %81 = getelementptr inbounds i8, ptr %71, i64 84
  store i32 %80, ptr %81, align 4
  %82 = getelementptr inbounds i8, ptr %71, i64 76
  store i32 0, ptr %82, align 4
  br label %83

83:                                               ; preds = %73, %67
  %84 = phi ptr [ %71, %73 ], [ null, %67 ]
  %85 = icmp eq ptr %84, null
  br i1 %85, label %95, label %86

86:                                               ; preds = %83
  %87 = getelementptr inbounds i8, ptr %84, i64 16
  store i64 %68, ptr %87, align 8
  %88 = getelementptr inbounds i8, ptr %84, i64 24
  tail call void @llvm.memset.p0.i64(ptr noundef align 8 dereferenceable(16) %88, i8 0, i64 16, i1 false)
  store ptr %87, ptr %69, align 8
  tail call void @rb_insert_color(ptr noundef %87, ptr noundef %9) #10
  %89 = getelementptr inbounds i8, ptr %0, i64 8
  %90 = load ptr, ptr %89, align 8
  store ptr %0, ptr %84, align 8
  %91 = getelementptr inbounds i8, ptr %84, i64 8
  store ptr %90, ptr %91, align 8
  tail call void asm sideeffect "", "~{memory},~{dirflag},~{fpsr},~{flags}"() #10, !srcloc !50
  store volatile ptr %84, ptr %90, align 8
  store ptr %84, ptr %89, align 8
  %92 = getelementptr inbounds i8, ptr %0, i64 16
  %93 = load i32, ptr %92, align 8
  %94 = add i32 %93, 1
  store i32 %94, ptr %92, align 8
  br label %95

95:                                               ; preds = %86, %83, %61, %8
  %96 = phi i32 [ 0, %86 ], [ -22, %8 ], [ -12, %83 ], [ %64, %61 ]
  ret i32 %96
}

; Function Attrs: fn_ret_thunk_extern nounwind null_pointer_is_valid
define dso_local i32 @dev_addr_init(ptr noundef %0) local_unnamed_addr #0 align 16 {
  %2 = alloca [32 x i8], align 16
  call void @llvm.lifetime.start.p0(i64 32, ptr nonnull %2) #10
  call void @llvm.memset.p0.i64(ptr noundef nonnull align 16 dereferenceable(32) %2, i8 0, i64 32, i1 false), !annotation !28
  %3 = getelementptr inbounds i8, ptr %0, i64 896
  store volatile ptr %3, ptr %3, align 8
  %4 = getelementptr inbounds i8, ptr %0, i64 904
  store volatile ptr %3, ptr %4, align 8
  %5 = getelementptr inbounds i8, ptr %0, i64 912
  store i32 0, ptr %5, align 8
  %6 = getelementptr inbounds i8, ptr %0, i64 920
  store ptr null, ptr %6, align 8
  call void @llvm.memset.p0.i64(ptr noundef nonnull align 16 dereferenceable(32) %2, i8 0, i64 32, i1 false)
  %7 = call fastcc i32 @__hw_addr_add_ex(ptr noundef %3, ptr noundef nonnull %2, i32 noundef 32, i8 noundef zeroext 1, i1 noundef zeroext false, i1 noundef zeroext false, i32 noundef 0, i1 noundef zeroext false)
  %8 = icmp eq i32 %7, 0
  br i1 %8, label %9, label %13

9:                                                ; preds = %1
  %10 = load ptr, ptr %3, align 8
  %11 = getelementptr inbounds i8, ptr %10, i64 40
  %12 = getelementptr inbounds i8, ptr %0, i64 968
  store ptr %11, ptr %12, align 8
  br label %13

13:                                               ; preds = %9, %1
  call void @llvm.lifetime.end.p0(i64 32, ptr nonnull %2) #10
  ret i32 %7
}