; Function Attrs: fn_ret_thunk_extern nounwind null_pointer_is_valid
define dso_local noundef i32 @dev_addr_init(ptr noundef %0) local_unnamed_addr #0 align 16 {
  %2 = getelementptr inbounds i8, ptr %0, i64 896
  store volatile ptr %2, ptr %2, align 8
  %3 = getelementptr inbounds i8, ptr %0, i64 904
  store volatile ptr %2, ptr %3, align 8
  %4 = getelementptr inbounds i8, ptr %0, i64 912
  store i32 0, ptr %4, align 8
  %5 = getelementptr inbounds i8, ptr %0, i64 920
  store ptr null, ptr %5, align 8
  %6 = load ptr, ptr getelementptr inbounds ([3 x [14 x ptr]], ptr @kmalloc_caches, i64 0, i64 0, i64 7), align 8
  %7 = tail call noalias align 8 dereferenceable_or_null(104) ptr @kmalloc_trace(ptr noundef %6, i32 noundef 2080, i64 noundef 104) #11
  %8 = icmp eq ptr %7, null
  br i1 %8, label %__hw_addr_add_ex.exit, label %9

9:                                                ; preds = %1
  %10 = getelementptr inbounds i8, ptr %7, i64 40
  tail call void @llvm.memset.p0.i64(ptr noundef align 8 dereferenceable(32) %10, i8 0, i64 32, i1 false)
  %11 = getelementptr inbounds i8, ptr %7, i64 72
  store i8 1, ptr %11, align 8
  %12 = getelementptr inbounds i8, ptr %7, i64 80
  store i32 1, ptr %12, align 8
  %13 = getelementptr inbounds i8, ptr %7, i64 73
  store i8 0, ptr %13, align 1
  %14 = getelementptr inbounds i8, ptr %7, i64 84
  store i32 0, ptr %14, align 4
  %15 = getelementptr inbounds i8, ptr %7, i64 76
  store i32 0, ptr %15, align 4
  %16 = getelementptr inbounds i8, ptr %7, i64 16
  tail call void @llvm.memset.p0.i64(ptr noundef align 8 dereferenceable(24) %16, i8 0, i64 24, i1 false)
  store ptr %16, ptr %5, align 8
  tail call void @rb_insert_color(ptr noundef %16, ptr noundef %5) #9
  %17 = load ptr, ptr %3, align 8
  store ptr %2, ptr %7, align 8
  %18 = getelementptr inbounds i8, ptr %7, i64 8
  store ptr %17, ptr %18, align 8
  tail call void asm sideeffect "", "~{memory},~{dirflag},~{fpsr},~{flags}"() #9, !srcloc !28
  store volatile ptr %7, ptr %17, align 8
  store ptr %7, ptr %3, align 8
  %19 = load i32, ptr %4, align 8
  %20 = add i32 %19, 1
  store i32 %20, ptr %4, align 8
  %21 = load ptr, ptr %2, align 8
  %22 = getelementptr inbounds i8, ptr %21, i64 40
  %23 = getelementptr inbounds i8, ptr %0, i64 968
  store ptr %22, ptr %23, align 8
  br label %__hw_addr_add_ex.exit

__hw_addr_add_ex.exit:                            ; preds = %1, %9
  %24 = phi i32 [ 0, %9 ], [ -12, %1 ]
  ret i32 %24
}